; Function Attrs: nounwind uwtable
define ptr @l_Lake_Toml_RBDict_append___rarg(ptr noundef %0, ptr noundef %1, ptr noundef readonly captures(none) %2) local_unnamed_addr #0 {
  %4 = getelementptr inbounds nuw i8, ptr %2, i64 8
  %5 = load ptr, ptr %4, align 8, !tbaa !4
  %6 = getelementptr i8, ptr %5, i64 8
  %.val.i = load i64, ptr %6, align 8, !tbaa !14
  %.mask.i = and i64 %.val.i, 9223372036854775807
  %.not.i = icmp eq i64 %.mask.i, 0
  br i1 %.not.i, label %lean_dec.exit24.i, label %lean_dec.exit.i

lean_dec.exit24.i:                                ; preds = %3
  %7 = ptrtoint ptr %0 to i64
  %8 = and i64 %7, 1
  %.not36.i = icmp eq i64 %8, 0
  br i1 %.not36.i, label %9, label %l_Lake_Toml_RBDict_appendArray___rarg.exit

9:                                                ; preds = %lean_dec.exit24.i
  %10 = load i32, ptr %0, align 4, !tbaa !8
  %11 = icmp sgt i32 %10, 1
  br i1 %11, label %12, label %14, !prof !13

12:                                               ; preds = %9
  %13 = add nsw i32 %10, -1
  store i32 %13, ptr %0, align 4, !tbaa !8
  br label %l_Lake_Toml_RBDict_appendArray___rarg.exit

14:                                               ; preds = %9
  %.not.i25.i = icmp eq i32 %10, 0
  br i1 %.not.i25.i, label %l_Lake_Toml_RBDict_appendArray___rarg.exit, label %15

15:                                               ; preds = %14
  tail call void @lean_dec_ref_cold(ptr noundef nonnull %0) #5
  br label %l_Lake_Toml_RBDict_appendArray___rarg.exit

lean_dec.exit.i:                                  ; preds = %3
  %16 = tail call ptr @l_Array_foldlMUnsafe_fold___at_Lake_Toml_RBDict_appendArray___spec__1___rarg(ptr noundef %0, ptr noundef nonnull readonly %5, i64 noundef 0, i64 noundef %.mask.i, ptr noundef %1)
  br label %l_Lake_Toml_RBDict_appendArray___rarg.exit

l_Lake_Toml_RBDict_appendArray___rarg.exit:       ; preds = %lean_dec.exit24.i, %12, %14, %15, %lean_dec.exit.i
  %.0.i = phi ptr [ %16, %lean_dec.exit.i ], [ %1, %15 ], [ %1, %14 ], [ %1, %12 ], [ %1, %lean_dec.exit24.i ]
  ret ptr %.0.i
}